target datalayout = "e-m:e-p270:32:32-p271:32:32-p272:64:64-i64:64-i128:128-f80:128-n8:16:32:64-S128"
target triple = "x86_64-pc-linux-gnu"

%struct.XML_Parser_Struct = type { i32, ptr, ptr, ptr, ptr, ptr, ptr, ptr, ptr, ptr, ptr, ptr, ptr, ptr, ptr }
%struct._xmlParserCtxt = type { ptr, ptr, ptr, i32, i32, ptr, ptr, i32, i32, ptr, i32, i32, ptr, ptr, i32, i32, ptr, i32, %struct._xmlParserNodeInfoSeq, i32, i32, i32, i32, i32, i32, %struct._xmlValidCtxt, i32, i32, ptr, ptr, i32, i32, ptr, i64, i64, i32, i32, i32, ptr, ptr, ptr, ptr, i32, i32, ptr, i32, ptr, i32, i32, i32, i32, ptr, i32, i32, ptr, i32, i32, ptr, ptr, i32, i32, ptr, ptr, ptr, i32, i32, i32, ptr, ptr, ptr, ptr, ptr, i32, i32, i32, i32, ptr, i32, ptr, %struct._xmlError, i32, i64, i64, ptr, i32, i32, ptr, i32, i64 }
%struct._xmlParserNodeInfoSeq = type { i64, i64, ptr }
%struct._xmlValidCtxt = type { ptr, ptr, ptr, ptr, i32, i32, ptr, i32, ptr, i32, ptr, i32, i32, ptr, ptr, ptr }
%struct._xmlError = type { i32, i32, ptr, i32, ptr, i32, ptr, ptr, ptr, i32, i32, ptr, ptr }
%struct._xmlParserInput = type { ptr, ptr, ptr, ptr, ptr, ptr, i32, i32, i32, i64, ptr, ptr, ptr, i32, i32 }
%struct._xmlParserInputBuffer = type { ptr, ptr, ptr, ptr, ptr, ptr, i32, i32, i64 }

; Function Attrs: nounwind uwtable
define dso_local i64 @php_XML_GetCurrentByteIndex(ptr noundef %0) #0 {
  %2 = alloca ptr, align 8
  %3 = alloca ptr, align 8
  %4 = alloca ptr, align 8
  %5 = alloca i64, align 8
  store ptr %0, ptr %2, align 8, !tbaa !11
  call void @llvm.lifetime.start.p0(i64 8, ptr %3) #8
  store ptr null, ptr %3, align 8, !tbaa !76
  call void @llvm.lifetime.start.p0(i64 8, ptr %4) #8
  %6 = load ptr, ptr %2, align 8, !tbaa !11
  %7 = getelementptr inbounds nuw %struct.XML_Parser_Struct, ptr %6, i32 0, i32 3
  %8 = load ptr, ptr %7, align 8, !tbaa !18
  %9 = getelementptr inbounds nuw %struct._xmlParserCtxt, ptr %8, i32 0, i32 9
  %10 = load ptr, ptr %9, align 8, !tbaa !71
  store ptr %10, ptr %4, align 8, !tbaa !78
  %11 = load ptr, ptr %4, align 8, !tbaa !78
  %12 = getelementptr inbounds nuw %struct._xmlParserInput, ptr %11, i32 0, i32 0
  %13 = load ptr, ptr %12, align 8, !tbaa !79
  %14 = icmp ne ptr %13, null
  br i1 %14, label %15, label %25

15:                                               ; preds = %1
  %16 = load ptr, ptr %4, align 8, !tbaa !78
  %17 = getelementptr inbounds nuw %struct._xmlParserInput, ptr %16, i32 0, i32 0
  %18 = load ptr, ptr %17, align 8, !tbaa !79
  %19 = getelementptr inbounds nuw %struct._xmlParserInputBuffer, ptr %18, i32 0, i32 3
  %20 = load ptr, ptr %19, align 8, !tbaa !80
  store ptr %20, ptr %3, align 8, !tbaa !76
  %21 = load ptr, ptr %4, align 8, !tbaa !78
  %22 = getelementptr inbounds nuw %struct._xmlParserInput, ptr %21, i32 0, i32 0
  %23 = load ptr, ptr %22, align 8, !tbaa !79
  %24 = getelementptr inbounds nuw %struct._xmlParserInputBuffer, ptr %23, i32 0, i32 3
  store ptr null, ptr %24, align 8, !tbaa !80
  br label %25

25:                                               ; preds = %15, %1
  call void @llvm.lifetime.start.p0(i64 8, ptr %5) #8
  %26 = load ptr, ptr %2, align 8, !tbaa !11
  %27 = getelementptr inbounds nuw %struct.XML_Parser_Struct, ptr %26, i32 0, i32 3
  %28 = load ptr, ptr %27, align 8, !tbaa !18
  %29 = call i64 @xmlByteConsumed(ptr noundef %28)
  store i64 %29, ptr %5, align 8, !tbaa !83
  %30 = load ptr, ptr %3, align 8, !tbaa !76
  %31 = icmp ne ptr %30, null
  br i1 %31, label %32, label %38

32:                                               ; preds = %25
  %33 = load ptr, ptr %3, align 8, !tbaa !76
  %34 = load ptr, ptr %4, align 8, !tbaa !78
  %35 = getelementptr inbounds nuw %struct._xmlParserInput, ptr %34, i32 0, i32 0
  %36 = load ptr, ptr %35, align 8, !tbaa !79
  %37 = getelementptr inbounds nuw %struct._xmlParserInputBuffer, ptr %36, i32 0, i32 3
  store ptr %33, ptr %37, align 8, !tbaa !80
  br label %38

38:                                               ; preds = %32, %25
  %39 = load i64, ptr %5, align 8, !tbaa !83
  call void @llvm.lifetime.end.p0(i64 8, ptr %5) #8
  call void @llvm.lifetime.end.p0(i64 8, ptr %4) #8
  call void @llvm.lifetime.end.p0(i64 8, ptr %3) #8
  ret i64 %39
}